; ModuleID = '2/961.c'
source_filename = "2/961.c"
target datalayout = "e-m:e-p270:32:32-p271:32:32-p272:64:64-i64:64-f80:128-n8:16:32:64-S128"
target triple = "x86_64-pc-linux-gnu"

%struct.lib = type { i32, [26 x i8] }

@.str = private unnamed_addr constant [3 x i8] c"%d\00", align 1
@.str.1 = private unnamed_addr constant [5 x i8] c"%d%s\00", align 1
@book = common dso_local global [1000 x %struct.lib] zeroinitializer, align 16
@.str.2 = private unnamed_addr constant [7 x i8] c"%c\0A%d\0A\00", align 1
@.str.3 = private unnamed_addr constant [4 x i8] c"%d\0A\00", align 1

; Function Attrs: noinline nounwind uwtable
define dso_local i32 @main() #0 {
  %1 = alloca i32, align 4
  %2 = alloca i32, align 4
  %3 = alloca i32, align 4
  %4 = alloca i32, align 4
  %5 = alloca i32, align 4
  %6 = alloca i32, align 4
  %7 = alloca [1000 x i32], align 16
  %8 = alloca [1000 x [1000 x i32]], align 16
  store i32 0, i32* %1, align 4
  store i32 0, i32* %6, align 4
  %9 = bitcast [1000 x i32]* %7 to i8*
  call void @llvm.memset.p0i8.i64(i8* align 16 %9, i8 0, i64 4000, i1 false)
  %10 = call i32 (i8*, ...) @__isoc99_scanf(i8* getelementptr inbounds ([3 x i8], [3 x i8]* @.str, i64 0, i64 0), i32* %2)
  store i32 0, i32* %3, align 4
  br label %11

11:                                               ; preds = %27, %0
  %12 = load i32, i32* %3, align 4
  %13 = load i32, i32* %2, align 4
  %14 = sub nsw i32 %13, 1
  %15 = icmp sle i32 %12, %14
  br i1 %15, label %16, label %30

16:                                               ; preds = %11
  %17 = load i32, i32* %3, align 4
  %18 = sext i32 %17 to i64
  %19 = getelementptr inbounds [1000 x %struct.lib], [1000 x %struct.lib]* @book, i64 0, i64 %18
  %20 = getelementptr inbounds %struct.lib, %struct.lib* %19, i32 0, i32 0
  %21 = load i32, i32* %3, align 4
  %22 = sext i32 %21 to i64
  %23 = getelementptr inbounds [1000 x %struct.lib], [1000 x %struct.lib]* @book, i64 0, i64 %22
  %24 = getelementptr inbounds %struct.lib, %struct.lib* %23, i32 0, i32 1
  %25 = getelementptr inbounds [26 x i8], [26 x i8]* %24, i64 0, i64 0
  %26 = call i32 (i8*, ...) @__isoc99_scanf(i8* getelementptr inbounds ([5 x i8], [5 x i8]* @.str.1, i64 0, i64 0), i32* %20, i8* %25)
  br label %27

27:                                               ; preds = %16
  %28 = load i32, i32* %3, align 4
  %29 = add nsw i32 %28, 1
  store i32 %29, i32* %3, align 4
  br label %11

30:                                               ; preds = %11
  store i32 65, i32* %4, align 4
  br label %31

31:                                               ; preds = %82, %30
  %32 = load i32, i32* %4, align 4
  %33 = icmp sle i32 %32, 90
  br i1 %33, label %34, label %85

34:                                               ; preds = %31
  store i32 0, i32* %3, align 4
  br label %35

35:                                               ; preds = %78, %34
  %36 = load i32, i32* %3, align 4
  %37 = load i32, i32* %2, align 4
  %38 = sub nsw i32 %37, 1
  %39 = icmp sle i32 %36, %38
  br i1 %39, label %40, label %81

40:                                               ; preds = %35
  store i32 0, i32* %5, align 4
  br label %41

41:                                               ; preds = %74, %40
  %42 = load i32, i32* %5, align 4
  %43 = icmp sle i32 %42, 25
  br i1 %43, label %44, label %77

44:                                               ; preds = %41
  %45 = load i32, i32* %4, align 4
  %46 = load i32, i32* %3, align 4
  %47 = sext i32 %46 to i64
  %48 = getelementptr inbounds [1000 x %struct.lib], [1000 x %struct.lib]* @book, i64 0, i64 %47
  %49 = getelementptr inbounds %struct.lib, %struct.lib* %48, i32 0, i32 1
  %50 = load i32, i32* %5, align 4
  %51 = sext i32 %50 to i64
  %52 = getelementptr inbounds [26 x i8], [26 x i8]* %49, i64 0, i64 %51
  %53 = load i8, i8* %52, align 1
  %54 = sext i8 %53 to i32
  %55 = icmp eq i32 %45, %54
  br i1 %55, label %56, label %73

56:                                               ; preds = %44
  %57 = load i32, i32* %4, align 4
  %58 = sext i32 %57 to i64
  %59 = getelementptr inbounds [1000 x i32], [1000 x i32]* %7, i64 0, i64 %58
  %60 = load i32, i32* %59, align 4
  %61 = add nsw i32 %60, 1
  store i32 %61, i32* %59, align 4
  %62 = load i32, i32* %3, align 4
  %63 = sext i32 %62 to i64
  %64 = getelementptr inbounds [1000 x %struct.lib], [1000 x %struct.lib]* @book, i64 0, i64 %63
  %65 = getelementptr inbounds %struct.lib, %struct.lib* %64, i32 0, i32 0
  %66 = load i32, i32* %65, align 16
  %67 = load i32, i32* %4, align 4
  %68 = sext i32 %67 to i64
  %69 = getelementptr inbounds [1000 x [1000 x i32]], [1000 x [1000 x i32]]* %8, i64 0, i64 %68
  %70 = load i32, i32* %3, align 4
  %71 = sext i32 %70 to i64
  %72 = getelementptr inbounds [1000 x i32], [1000 x i32]* %69, i64 0, i64 %71
  store i32 %66, i32* %72, align 4
  br label %73

73:                                               ; preds = %56, %44
  br label %74

74:                                               ; preds = %73
  %75 = load i32, i32* %5, align 4
  %76 = add nsw i32 %75, 1
  store i32 %76, i32* %5, align 4
  br label %41

77:                                               ; preds = %41
  br label %78

78:                                               ; preds = %77
  %79 = load i32, i32* %3, align 4
  %80 = add nsw i32 %79, 1
  store i32 %80, i32* %3, align 4
  br label %35

81:                                               ; preds = %35
  br label %82

82:                                               ; preds = %81
  %83 = load i32, i32* %4, align 4
  %84 = add nsw i32 %83, 1
  store i32 %84, i32* %4, align 4
  br label %31

85:                                               ; preds = %31
  store i32 65, i32* %3, align 4
  br label %86

86:                                               ; preds = %102, %85
  %87 = load i32, i32* %3, align 4
  %88 = icmp sle i32 %87, 90
  br i1 %88, label %89, label %105

89:                                               ; preds = %86
  %90 = load i32, i32* %3, align 4
  %91 = sext i32 %90 to i64
  %92 = getelementptr inbounds [1000 x i32], [1000 x i32]* %7, i64 0, i64 %91
  %93 = load i32, i32* %92, align 4
  %94 = load i32, i32* %6, align 4
  %95 = icmp sgt i32 %93, %94
  br i1 %95, label %96, label %101

96:                                               ; preds = %89
  %97 = load i32, i32* %3, align 4
  %98 = sext i32 %97 to i64
  %99 = getelementptr inbounds [1000 x i32], [1000 x i32]* %7, i64 0, i64 %98
  %100 = load i32, i32* %99, align 4
  store i32 %100, i32* %6, align 4
  br label %101

101:                                              ; preds = %96, %89
  br label %102

102:                                              ; preds = %101
  %103 = load i32, i32* %3, align 4
  %104 = add nsw i32 %103, 1
  store i32 %104, i32* %3, align 4
  br label %86

105:                                              ; preds = %86
  store i32 65, i32* %4, align 4
  br label %106

106:                                              ; preds = %152, %105
  %107 = load i32, i32* %4, align 4
  %108 = icmp sle i32 %107, 90
  br i1 %108, label %109, label %155

109:                                              ; preds = %106
  %110 = load i32, i32* %4, align 4
  %111 = sext i32 %110 to i64
  %112 = getelementptr inbounds [1000 x i32], [1000 x i32]* %7, i64 0, i64 %111
  %113 = load i32, i32* %112, align 4
  %114 = load i32, i32* %6, align 4
  %115 = icmp eq i32 %113, %114
  br i1 %115, label %116, label %151

116:                                              ; preds = %109
  %117 = load i32, i32* %4, align 4
  %118 = load i32, i32* %4, align 4
  %119 = sext i32 %118 to i64
  %120 = getelementptr inbounds [1000 x i32], [1000 x i32]* %7, i64 0, i64 %119
  %121 = load i32, i32* %120, align 4
  %122 = call i32 (i8*, ...) @printf(i8* getelementptr inbounds ([7 x i8], [7 x i8]* @.str.2, i64 0, i64 0), i32 %117, i32 %121)
  store i32 0, i32* %5, align 4
  br label %123

123:                                              ; preds = %147, %116
  %124 = load i32, i32* %5, align 4
  %125 = load i32, i32* %2, align 4
  %126 = sub nsw i32 %125, 1
  %127 = icmp sle i32 %124, %126
  br i1 %127, label %128, label %150

128:                                              ; preds = %123
  %129 = load i32, i32* %4, align 4
  %130 = sext i32 %129 to i64
  %131 = getelementptr inbounds [1000 x [1000 x i32]], [1000 x [1000 x i32]]* %8, i64 0, i64 %130
  %132 = load i32, i32* %5, align 4
  %133 = sext i32 %132 to i64
  %134 = getelementptr inbounds [1000 x i32], [1000 x i32]* %131, i64 0, i64 %133
  %135 = load i32, i32* %134, align 4
  %136 = icmp ne i32 %135, 0
  br i1 %136, label %137, label %146

137:                                              ; preds = %128
  %138 = load i32, i32* %4, align 4
  %139 = sext i32 %138 to i64
  %140 = getelementptr inbounds [1000 x [1000 x i32]], [1000 x [1000 x i32]]* %8, i64 0, i64 %139
  %141 = load i32, i32* %5, align 4
  %142 = sext i32 %141 to i64
  %143 = getelementptr inbounds [1000 x i32], [1000 x i32]* %140, i64 0, i64 %142
  %144 = load i32, i32* %143, align 4
  %145 = call i32 (i8*, ...) @printf(i8* getelementptr inbounds ([4 x i8], [4 x i8]* @.str.3, i64 0, i64 0), i32 %144)
  br label %146

146:                                              ; preds = %137, %128
  br label %147

147:                                              ; preds = %146
  %148 = load i32, i32* %5, align 4
  %149 = add nsw i32 %148, 1
  store i32 %149, i32* %5, align 4
  br label %123

150:                                              ; preds = %123
  br label %155

151:                                              ; preds = %109
  br label %152

152:                                              ; preds = %151
  %153 = load i32, i32* %4, align 4
  %154 = add nsw i32 %153, 1
  store i32 %154, i32* %4, align 4
  br label %106

155:                                              ; preds = %150, %106
  ret i32 0
}

; Function Attrs: argmemonly nounwind willreturn
declare void @llvm.memset.p0i8.i64(i8* nocapture writeonly, i8, i64, i1 immarg) #1

declare dso_local i32 @__isoc99_scanf(i8*, ...) #2

declare dso_local i32 @printf(i8*, ...) #2


!llvm.module.flags = !{!0}
!llvm.ident = !{!1}

!0 = !{i32 1, !"wchar_size", i32 4}
!1 = !{!"clang version 10.0.0-4ubuntu1 "}
